; Function Attrs: mustprogress uwtable
define hidden void @_ZN4cvc58internal5proof14mkLfscRuleNodeEPNS0_11NodeManagerENS1_8LfscRuleE(ptr dead_on_unwind noalias writable sret(%"class.cvc5::internal::NodeTemplate") align 8 %0, ptr noundef %1, i32 noundef %2) local_unnamed_addr #4 personality ptr @__gxx_personality_v0 {
  %4 = alloca %"class.cvc5::internal::Rational", align 8
  call void @llvm.lifetime.start.p0(i64 32, ptr nonnull %4) #13
  call void @_ZN4cvc58internal8RationalC2Ej(ptr noundef nonnull align 8 dereferenceable(32) %4, i32 noundef %2)
  invoke void @_ZN4cvc58internal11NodeManager10mkConstIntERKNS0_8RationalE(ptr dead_on_unwind writable sret(%"class.cvc5::internal::NodeTemplate") align 8 %0, ptr noundef nonnull align 8 dereferenceable(3560) %1, ptr noundef nonnull align 8 dereferenceable(32) %4)
          to label %5 unwind label %9

5:                                                ; preds = %3
  invoke void @__gmpq_clear(ptr noundef nonnull align 8 dereferenceable(32) %4)
          to label %_ZN4cvc58internal8RationalD2Ev.exit unwind label %6

6:                                                ; preds = %5
  %7 = landingpad { ptr, i32 }
          catch ptr null
  %8 = extractvalue { ptr, i32 } %7, 0
  call void @__clang_call_terminate(ptr %8) #14
  unreachable

_ZN4cvc58internal8RationalD2Ev.exit:              ; preds = %5
  call void @llvm.lifetime.end.p0(i64 32, ptr nonnull %4) #13
  ret void

9:                                                ; preds = %3
  %10 = landingpad { ptr, i32 }
          cleanup
  invoke void @__gmpq_clear(ptr noundef nonnull align 8 dereferenceable(32) %4)
          to label %_ZN4cvc58internal8RationalD2Ev.exit3 unwind label %11

11:                                               ; preds = %9
  %12 = landingpad { ptr, i32 }
          catch ptr null
  %13 = extractvalue { ptr, i32 } %12, 0
  call void @__clang_call_terminate(ptr %13) #14
  unreachable

_ZN4cvc58internal8RationalD2Ev.exit3:             ; preds = %9
  call void @llvm.lifetime.end.p0(i64 32, ptr nonnull %4) #13
  resume { ptr, i32 } %10
}